target datalayout = "e-m:e-p270:32:32-p271:32:32-p272:64:64-i64:64-i128:128-f80:128-n8:16:32:64-S128"
target triple = "x86_64-pc-linux-gnu"

%"class.icu_77::UnicodeString" = type { %"class.icu_77::Replaceable", %"union.icu_77::UnicodeString::StackBufferOrFields" }
%"class.icu_77::Replaceable" = type { %"class.icu_77::UObject" }
%"class.icu_77::UObject" = type { ptr }
%"union.icu_77::UnicodeString::StackBufferOrFields" = type { %struct.anon.0, [32 x i8] }
%struct.anon.0 = type { i16, i32, i32, ptr }
%"class.icu_77::SimpleDateFormat" = type { %"class.icu_77::DateFormat", %"class.icu_77::UnicodeString", %"class.icu_77::UnicodeString", %"class.icu_77::UnicodeString", %"class.icu_77::Locale", ptr, ptr, double, i8, i8, i8, i32, ptr, ptr, i8, ptr }
%"class.icu_77::DateFormat" = type { %"class.icu_77::Format", ptr, ptr, %"class.icu_77::EnumSet", i32 }
%"class.icu_77::Format" = type { %"class.icu_77::UObject", ptr, ptr }
%"class.icu_77::EnumSet" = type { i32 }
%"class.icu_77::Locale" = type <{ %"class.icu_77::UObject", [12 x i8], [6 x i8], [4 x i8], [2 x i8], i32, [4 x i8], ptr, [157 x i8], [3 x i8], ptr, i8, [7 x i8] }>
%"class.icu_77::number::SimpleNumberFormatter" = type { i32, ptr, ptr, ptr }

@_ZTIN6icu_7712NumberFormatE = external constant ptr
@_ZTIN6icu_7713DecimalFormatE = external constant ptr

; Function Attrs: inlinehint mustprogress nounwind uwtable
define internal noundef signext i8 @_ZL9U_FAILURE10UErrorCode(i32 noundef %0) #2 {
  %2 = alloca i32, align 4
  store i32 %0, ptr %2, align 4, !tbaa !15
  %3 = load i32, ptr %2, align 4, !tbaa !15
  %4 = icmp sgt i32 %3, 0
  %5 = zext i1 %4 to i8
  ret i8 %5
}

; Function Attrs: mustprogress uwtable
define linkonce_odr void @_ZN6icu_7712SharedObject8clearPtrINS_18SharedNumberFormatEEEvRPKT_(ptr noundef nonnull align 8 dereferenceable(8) %0) #1 comdat align 2 {
  %2 = alloca ptr, align 8
  store ptr %0, ptr %2, align 8, !tbaa !69
  %3 = load ptr, ptr %2, align 8, !tbaa !69
  %4 = load ptr, ptr %3, align 8, !tbaa !55
  %5 = icmp ne ptr %4, null
  br i1 %5, label %6, label %10

6:                                                ; preds = %1
  %7 = load ptr, ptr %2, align 8, !tbaa !69
  %8 = load ptr, ptr %7, align 8, !tbaa !55
  call void @_ZNK6icu_7712SharedObject9removeRefEv(ptr noundef nonnull align 8 dereferenceable(24) %8)
  %9 = load ptr, ptr %2, align 8, !tbaa !69
  store ptr null, ptr %9, align 8, !tbaa !55
  br label %10

10:                                               ; preds = %6, %1
  ret void
}

; Function Attrs: mustprogress uwtable
define void @_ZN6icu_7716SimpleDateFormat25initSimpleNumberFormatterER10UErrorCode(ptr noundef nonnull align 8 dereferenceable(528) %0, ptr noundef nonnull align 4 dereferenceable(4) %1) #1 align 2 personality ptr @__gxx_personality_v0 {
  %3 = alloca ptr, align 8
  %4 = alloca ptr, align 8
  %5 = alloca ptr, align 8
  %6 = alloca i32, align 4
  %7 = alloca ptr, align 8
  %8 = alloca ptr, align 8
  %9 = alloca i1, align 1
  %10 = alloca ptr, align 8
  %11 = alloca i32, align 4
  store ptr %0, ptr %3, align 8, !tbaa !23
  store ptr %1, ptr %4, align 8, !tbaa !22
  %12 = load ptr, ptr %3, align 8
  %13 = load ptr, ptr %4, align 8, !tbaa !22
  %14 = load i32, ptr %13, align 4, !tbaa !15
  %15 = call noundef signext i8 @_ZL9U_FAILURE10UErrorCode(i32 noundef %14)
  %16 = icmp ne i8 %15, 0
  br i1 %16, label %17, label %18

17:                                               ; preds = %2
  br label %67

18:                                               ; preds = %2
  call void @llvm.lifetime.start.p0(i64 8, ptr %5) #12
  %19 = getelementptr inbounds nuw %"class.icu_77::DateFormat", ptr %12, i32 0, i32 2
  %20 = load ptr, ptr %19, align 8, !tbaa !56
  %21 = icmp eq ptr %20, null
  br i1 %21, label %24, label %22

22:                                               ; preds = %18
  %23 = call ptr @__dynamic_cast(ptr %20, ptr @_ZTIN6icu_7712NumberFormatE, ptr @_ZTIN6icu_7713DecimalFormatE, i64 0) #12
  br label %25

24:                                               ; preds = %18
  br label %25

25:                                               ; preds = %24, %22
  %26 = phi ptr [ %23, %22 ], [ null, %24 ]
  store ptr %26, ptr %5, align 8, !tbaa !109
  %27 = load ptr, ptr %5, align 8, !tbaa !109
  %28 = icmp eq ptr %27, null
  br i1 %28, label %29, label %30

29:                                               ; preds = %25
  store i32 1, ptr %6, align 4
  br label %65

30:                                               ; preds = %25
  call void @llvm.lifetime.start.p0(i64 8, ptr %7) #12
  %31 = load ptr, ptr %5, align 8, !tbaa !109
  %32 = load ptr, ptr %31, align 8, !tbaa !63
  %33 = getelementptr inbounds ptr, ptr %32, i64 39
  %34 = load ptr, ptr %33, align 8
  %35 = call noundef ptr %34(ptr noundef nonnull align 8 dereferenceable(72) %31)
  store ptr %35, ptr %7, align 8, !tbaa !111
  %36 = load ptr, ptr %7, align 8, !tbaa !111
  %37 = icmp eq ptr %36, null
  br i1 %37, label %38, label %39

38:                                               ; preds = %30
  store i32 1, ptr %6, align 4
  br label %64

39:                                               ; preds = %30
  %40 = call noundef ptr @_ZN6icu_777UMemorynwEm(i64 noundef 32) #12
  %41 = icmp eq ptr %40, null
  store i1 false, ptr %9, align 1
  br i1 %41, label %47, label %42

42:                                               ; preds = %39
  store ptr %40, ptr %8, align 8
  store i1 true, ptr %9, align 1
  %43 = getelementptr inbounds nuw %"class.icu_77::SimpleDateFormat", ptr %12, i32 0, i32 4
  %44 = load ptr, ptr %7, align 8, !tbaa !111
  %45 = load ptr, ptr %4, align 8, !tbaa !22
  invoke void @_ZN6icu_776number21SimpleNumberFormatter38forLocaleAndSymbolsAndGroupingStrategyERKNS_6LocaleERKNS_20DecimalFormatSymbolsE23UNumberGroupingStrategyR10UErrorCode(ptr dead_on_unwind writable sret(%"class.icu_77::number::SimpleNumberFormatter") align 8 %40, ptr noundef nonnull align 8 dereferenceable(217) %43, ptr noundef nonnull align 8 dereferenceable(2579) %44, i32 noundef 0, ptr noundef nonnull align 4 dereferenceable(4) %45)
          to label %46 unwind label %55

46:                                               ; preds = %42
  br label %47

47:                                               ; preds = %46, %39
  %48 = phi ptr [ %40, %46 ], [ null, %39 ]
  %49 = getelementptr inbounds nuw %"class.icu_77::SimpleDateFormat", ptr %12, i32 0, i32 13
  store ptr %48, ptr %49, align 8, !tbaa !67
  %50 = getelementptr inbounds nuw %"class.icu_77::SimpleDateFormat", ptr %12, i32 0, i32 13
  %51 = load ptr, ptr %50, align 8, !tbaa !67
  %52 = icmp eq ptr %51, null
  br i1 %52, label %53, label %63

53:                                               ; preds = %47
  %54 = load ptr, ptr %4, align 8, !tbaa !22
  store i32 7, ptr %54, align 4, !tbaa !15
  br label %63

55:                                               ; preds = %42
  %56 = landingpad { ptr, i32 }
          cleanup
  %57 = extractvalue { ptr, i32 } %56, 0
  store ptr %57, ptr %10, align 8
  %58 = extractvalue { ptr, i32 } %56, 1
  store i32 %58, ptr %11, align 4
  %59 = load i1, ptr %9, align 1
  br i1 %59, label %60, label %62

60:                                               ; preds = %55
  %61 = load ptr, ptr %8, align 8
  call void @_ZN6icu_777UMemorydlEPv(ptr noundef %61) #12
  br label %62

62:                                               ; preds = %60, %55
  call void @llvm.lifetime.end.p0(i64 8, ptr %7) #12
  call void @llvm.lifetime.end.p0(i64 8, ptr %5) #12
  br label %68

63:                                               ; preds = %53, %47
  store i32 0, ptr %6, align 4
  br label %64

64:                                               ; preds = %63, %38
  call void @llvm.lifetime.end.p0(i64 8, ptr %7) #12
  br label %65

65:                                               ; preds = %64, %29
  call void @llvm.lifetime.end.p0(i64 8, ptr %5) #12
  %66 = load i32, ptr %6, align 4
  switch i32 %66, label %73 [
    i32 0, label %67
    i32 1, label %67
  ]

67:                                               ; preds = %17, %65, %65
  ret void

68:                                               ; preds = %62
  %69 = load ptr, ptr %10, align 8
  %70 = load i32, ptr %11, align 4
  %71 = insertvalue { ptr, i32 } poison, ptr %69, 0
  %72 = insertvalue { ptr, i32 } %71, i32 %70, 1
  resume { ptr, i32 } %72

73:                                               ; preds = %65
  unreachable
}

; Function Attrs: mustprogress uwtable
define internal void @_ZN6icu_77L26freeSharedNumberFormattersEPPKNS_18SharedNumberFormatE(ptr noundef %0) #1 {
  %2 = alloca ptr, align 8
  %3 = alloca i32, align 4
  store ptr %0, ptr %2, align 8, !tbaa !69
  call void @llvm.lifetime.start.p0(i64 4, ptr %3) #12
  store i32 0, ptr %3, align 4, !tbaa !14
  br label %4

4:                                                ; preds = %13, %1
  %5 = load i32, ptr %3, align 4, !tbaa !14
  %6 = icmp slt i32 %5, 38
  br i1 %6, label %8, label %7

7:                                                ; preds = %4
  call void @llvm.lifetime.end.p0(i64 4, ptr %3) #12
  br label %16

8:                                                ; preds = %4
  %9 = load ptr, ptr %2, align 8, !tbaa !69
  %10 = load i32, ptr %3, align 4, !tbaa !14
  %11 = sext i32 %10 to i64
  %12 = getelementptr inbounds ptr, ptr %9, i64 %11
  call void @_ZN6icu_7712SharedObject8clearPtrINS_18SharedNumberFormatEEEvRPKT_(ptr noundef nonnull align 8 dereferenceable(8) %12)
  br label %13

13:                                               ; preds = %8
  %14 = load i32, ptr %3, align 4, !tbaa !14
  %15 = add nsw i32 %14, 1
  store i32 %15, ptr %3, align 4, !tbaa !14
  br label %4, !llvm.loop !70

16:                                               ; preds = %7
  %17 = load ptr, ptr %2, align 8, !tbaa !69
  call void @uprv_free_77(ptr noundef %17)
  ret void
}

; Function Attrs: mustprogress uwtable
define internal void @_ZN6icu_77L23fixNumberFormatForDatesERNS_12NumberFormatE(ptr noundef nonnull align 8 dereferenceable(60) %0) #1 {
  %2 = alloca ptr, align 8
  %3 = alloca ptr, align 8
  store ptr %0, ptr %2, align 8, !tbaa !148
  %4 = load ptr, ptr %2, align 8, !tbaa !148
  %5 = load ptr, ptr %4, align 8, !tbaa !63
  %6 = getelementptr inbounds ptr, ptr %5, i64 26
  %7 = load ptr, ptr %6, align 8
  call void %7(ptr noundef nonnull align 8 dereferenceable(60) %4, i8 noundef signext 0)
  call void @llvm.lifetime.start.p0(i64 8, ptr %3) #12
  %8 = load ptr, ptr %2, align 8, !tbaa !148
  %9 = icmp eq ptr %8, null
  br i1 %9, label %12, label %10

10:                                               ; preds = %1
  %11 = call ptr @__dynamic_cast(ptr %8, ptr @_ZTIN6icu_7712NumberFormatE, ptr @_ZTIN6icu_7713DecimalFormatE, i64 0) #12
  br label %13

12:                                               ; preds = %1
  br label %13

13:                                               ; preds = %12, %10
  %14 = phi ptr [ %11, %10 ], [ null, %12 ]
  store ptr %14, ptr %3, align 8, !tbaa !109
  %15 = load ptr, ptr %3, align 8, !tbaa !109
  %16 = icmp ne ptr %15, null
  br i1 %16, label %17, label %22

17:                                               ; preds = %13
  %18 = load ptr, ptr %3, align 8, !tbaa !109
  %19 = load ptr, ptr %18, align 8, !tbaa !63
  %20 = getelementptr inbounds ptr, ptr %19, i64 66
  %21 = load ptr, ptr %20, align 8
  call void %21(ptr noundef nonnull align 8 dereferenceable(72) %18, i8 noundef signext 0)
  br label %22

22:                                               ; preds = %17, %13
  %23 = load ptr, ptr %2, align 8, !tbaa !148
  %24 = load ptr, ptr %23, align 8, !tbaa !63
  %25 = getelementptr inbounds ptr, ptr %24, i64 23
  %26 = load ptr, ptr %25, align 8
  call void %26(ptr noundef nonnull align 8 dereferenceable(60) %23, i8 noundef signext 1)
  %27 = load ptr, ptr %2, align 8, !tbaa !148
  %28 = load ptr, ptr %27, align 8, !tbaa !63
  %29 = getelementptr inbounds ptr, ptr %28, i64 30
  %30 = load ptr, ptr %29, align 8
  call void %30(ptr noundef nonnull align 8 dereferenceable(60) %27, i32 noundef 0)
  call void @llvm.lifetime.end.p0(i64 8, ptr %3) #12
  ret void
}

; Function Attrs: mustprogress nounwind uwtable
define linkonce_odr void @_ZN6icu_776number21SimpleNumberFormatterD2Ev(ptr noundef nonnull align 8 dereferenceable(32) %0) unnamed_addr #0 comdat align 2 personality ptr @__gxx_personality_v0 {
  %2 = alloca ptr, align 8
  store ptr %0, ptr %2, align 8, !tbaa !71
  %3 = load ptr, ptr %2, align 8
  invoke void @_ZN6icu_776number21SimpleNumberFormatter7cleanupEv(ptr noundef nonnull align 8 dereferenceable(32) %3)
          to label %4 unwind label %5

4:                                                ; preds = %1
  ret void

5:                                                ; preds = %1
  %6 = landingpad { ptr, i32 }
          catch ptr null
  %7 = extractvalue { ptr, i32 } %6, 0
  call void @__clang_call_terminate(ptr %7) #16
  unreachable
}

; Function Attrs: mustprogress uwtable
define void @_ZN6icu_7716SimpleDateFormat17adoptNumberFormatEPNS_12NumberFormatE(ptr noundef nonnull align 8 dereferenceable(528) %0, ptr noundef %1) unnamed_addr #1 align 2 {
  %3 = alloca ptr, align 8
  %4 = alloca ptr, align 8
  %5 = alloca i32, align 4
  store ptr %0, ptr %3, align 8, !tbaa !23
  store ptr %1, ptr %4, align 8, !tbaa !148
  %6 = load ptr, ptr %3, align 8
  %7 = getelementptr inbounds nuw %"class.icu_77::SimpleDateFormat", ptr %6, i32 0, i32 13
  %8 = load ptr, ptr %7, align 8, !tbaa !67
  %9 = icmp eq ptr %8, null
  br i1 %9, label %11, label %10

10:                                               ; preds = %2
  call void @_ZN6icu_776number21SimpleNumberFormatterD2Ev(ptr noundef nonnull align 8 dereferenceable(32) %8) #12
  call void @_ZN6icu_777UMemorydlEPv(ptr noundef %8) #12
  br label %11

11:                                               ; preds = %10, %2
  %12 = getelementptr inbounds nuw %"class.icu_77::SimpleDateFormat", ptr %6, i32 0, i32 13
  store ptr null, ptr %12, align 8, !tbaa !67
  %13 = load ptr, ptr %4, align 8, !tbaa !148
  call void @_ZN6icu_77L23fixNumberFormatForDatesERNS_12NumberFormatE(ptr noundef nonnull align 8 dereferenceable(60) %13)
  %14 = getelementptr inbounds nuw %"class.icu_77::DateFormat", ptr %6, i32 0, i32 2
  %15 = load ptr, ptr %14, align 8, !tbaa !56
  %16 = icmp eq ptr %15, null
  br i1 %16, label %21, label %17

17:                                               ; preds = %11
  %18 = load ptr, ptr %15, align 8, !tbaa !63
  %19 = getelementptr inbounds ptr, ptr %18, i64 1
  %20 = load ptr, ptr %19, align 8
  call void %20(ptr noundef nonnull align 8 dereferenceable(60) %15) #12
  br label %21

21:                                               ; preds = %17, %11
  %22 = load ptr, ptr %4, align 8, !tbaa !148
  %23 = getelementptr inbounds nuw %"class.icu_77::DateFormat", ptr %6, i32 0, i32 2
  store ptr %22, ptr %23, align 8, !tbaa !56
  %24 = getelementptr inbounds nuw %"class.icu_77::SimpleDateFormat", ptr %6, i32 0, i32 12
  %25 = load ptr, ptr %24, align 8, !tbaa !35
  %26 = icmp ne ptr %25, null
  br i1 %26, label %27, label %31

27:                                               ; preds = %21
  %28 = getelementptr inbounds nuw %"class.icu_77::SimpleDateFormat", ptr %6, i32 0, i32 12
  %29 = load ptr, ptr %28, align 8, !tbaa !35
  call void @_ZN6icu_77L26freeSharedNumberFormattersEPPKNS_18SharedNumberFormatE(ptr noundef %29)
  %30 = getelementptr inbounds nuw %"class.icu_77::SimpleDateFormat", ptr %6, i32 0, i32 12
  store ptr null, ptr %30, align 8, !tbaa !35
  br label %31

31:                                               ; preds = %27, %21
  call void @llvm.lifetime.start.p0(i64 4, ptr %5) #12
  store i32 0, ptr %5, align 4, !tbaa !15
  call void @_ZN6icu_7716SimpleDateFormat25initSimpleNumberFormatterER10UErrorCode(ptr noundef nonnull align 8 dereferenceable(528) %6, ptr noundef nonnull align 4 dereferenceable(4) %5)
  call void @llvm.lifetime.end.p0(i64 4, ptr %5) #12
  ret void
}