; Function Attrs: mustprogress uwtable
define void @_ZN6icu_7716SimpleDateFormat17adoptNumberFormatEPNS_12NumberFormatE(ptr noundef nonnull align 8 dereferenceable(528) %0, ptr noundef %1) unnamed_addr #1 align 2 personality ptr @__gxx_personality_v0 {
  %3 = alloca i32, align 4
  %4 = getelementptr inbounds nuw i8, ptr %0, i64 504
  %5 = load ptr, ptr %4, align 8, !tbaa !49
  %6 = icmp eq ptr %5, null
  br i1 %6, label %11, label %7

7:                                                ; preds = %2
  invoke void @_ZN6icu_776number21SimpleNumberFormatter7cleanupEv(ptr noundef nonnull align 8 dereferenceable(32) %5)
          to label %_ZN6icu_776number21SimpleNumberFormatterD2Ev.exit unwind label %8

8:                                                ; preds = %7
  %9 = landingpad { ptr, i32 }
          catch ptr null
  %10 = extractvalue { ptr, i32 } %9, 0
  tail call void @__clang_call_terminate(ptr %10) #25
  unreachable

_ZN6icu_776number21SimpleNumberFormatterD2Ev.exit: ; preds = %7
  tail call void @_ZN6icu_777UMemorydlEPv(ptr noundef nonnull %5) #23
  br label %11

11:                                               ; preds = %_ZN6icu_776number21SimpleNumberFormatterD2Ev.exit, %2
  store ptr null, ptr %4, align 8, !tbaa !49
  %12 = load ptr, ptr %1, align 8, !tbaa !44
  %13 = getelementptr inbounds nuw i8, ptr %12, i64 208
  %14 = load ptr, ptr %13, align 8
  tail call void %14(ptr noundef nonnull align 8 dereferenceable(60) %1, i8 noundef signext 0)
  %15 = tail call ptr @__dynamic_cast(ptr nonnull align 8 dereferenceable(60) %1, ptr nonnull @_ZTIN6icu_7712NumberFormatE, ptr nonnull @_ZTIN6icu_7713DecimalFormatE, i64 0) #23
  %.not.i = icmp eq ptr %15, null
  br i1 %.not.i, label %_ZN6icu_77L23fixNumberFormatForDatesERNS_12NumberFormatE.exit, label %16

16:                                               ; preds = %11
  %17 = load ptr, ptr %15, align 8, !tbaa !44
  %18 = getelementptr inbounds nuw i8, ptr %17, i64 528
  %19 = load ptr, ptr %18, align 8
  tail call void %19(ptr noundef nonnull align 8 dereferenceable(72) %15, i8 noundef signext 0)
  br label %_ZN6icu_77L23fixNumberFormatForDatesERNS_12NumberFormatE.exit

_ZN6icu_77L23fixNumberFormatForDatesERNS_12NumberFormatE.exit: ; preds = %11, %16
  %20 = load ptr, ptr %1, align 8, !tbaa !44
  %21 = getelementptr inbounds nuw i8, ptr %20, i64 184
  %22 = load ptr, ptr %21, align 8
  tail call void %22(ptr noundef nonnull align 8 dereferenceable(60) %1, i8 noundef signext 1)
  %23 = load ptr, ptr %1, align 8, !tbaa !44
  %24 = getelementptr inbounds nuw i8, ptr %23, i64 240
  %25 = load ptr, ptr %24, align 8
  tail call void %25(ptr noundef nonnull align 8 dereferenceable(60) %1, i32 noundef 0)
  %26 = getelementptr inbounds nuw i8, ptr %0, i64 32
  %27 = load ptr, ptr %26, align 8, !tbaa !74
  %28 = icmp eq ptr %27, null
  br i1 %28, label %33, label %29

29:                                               ; preds = %_ZN6icu_77L23fixNumberFormatForDatesERNS_12NumberFormatE.exit
  %30 = load ptr, ptr %27, align 8, !tbaa !44
  %31 = getelementptr inbounds nuw i8, ptr %30, i64 8
  %32 = load ptr, ptr %31, align 8
  tail call void %32(ptr noundef nonnull align 8 dereferenceable(60) %27) #23
  br label %33

33:                                               ; preds = %29, %_ZN6icu_77L23fixNumberFormatForDatesERNS_12NumberFormatE.exit
  store ptr %1, ptr %26, align 8, !tbaa !74
  %34 = getelementptr inbounds nuw i8, ptr %0, i64 496
  %35 = load ptr, ptr %34, align 8, !tbaa !22
  %.not = icmp eq ptr %35, null
  br i1 %.not, label %.thread, label %.preheader

.thread:                                          ; preds = %33
  call void @llvm.lifetime.start.p0(i64 4, ptr nonnull %3) #23
  store i32 0, ptr %3, align 4, !tbaa !13
  br label %41

.preheader:                                       ; preds = %33, %_ZN6icu_7712SharedObject8clearPtrINS_18SharedNumberFormatEEEvRPKT_.exit.i
  %indvars.iv.i = phi i64 [ %indvars.iv.next.i, %_ZN6icu_7712SharedObject8clearPtrINS_18SharedNumberFormatEEEvRPKT_.exit.i ], [ 0, %33 ]
  %36 = getelementptr inbounds nuw ptr, ptr %35, i64 %indvars.iv.i
  %37 = load ptr, ptr %36, align 8, !tbaa !42
  %.not.i.i = icmp eq ptr %37, null
  br i1 %.not.i.i, label %_ZN6icu_7712SharedObject8clearPtrINS_18SharedNumberFormatEEEvRPKT_.exit.i, label %38

38:                                               ; preds = %.preheader
  tail call void @_ZNK6icu_7712SharedObject9removeRefEv(ptr noundef nonnull align 8 dereferenceable(24) %37)
  store ptr null, ptr %36, align 8, !tbaa !42
  br label %_ZN6icu_7712SharedObject8clearPtrINS_18SharedNumberFormatEEEvRPKT_.exit.i

_ZN6icu_7712SharedObject8clearPtrINS_18SharedNumberFormatEEEvRPKT_.exit.i: ; preds = %38, %.preheader
  %indvars.iv.next.i = add nuw nsw i64 %indvars.iv.i, 1
  %exitcond.not.i = icmp eq i64 %indvars.iv.next.i, 38
  br i1 %exitcond.not.i, label %39, label %.preheader, !llvm.loop !47

39:                                               ; preds = %_ZN6icu_7712SharedObject8clearPtrINS_18SharedNumberFormatEEEvRPKT_.exit.i
  tail call void @uprv_free_77(ptr noundef nonnull %35)
  store ptr null, ptr %34, align 8, !tbaa !22
  %.pr = load ptr, ptr %26, align 8, !tbaa !74
  call void @llvm.lifetime.start.p0(i64 4, ptr nonnull %3) #23
  store i32 0, ptr %3, align 4, !tbaa !13
  %40 = icmp eq ptr %.pr, null
  br i1 %40, label %_ZN6icu_7716SimpleDateFormat25initSimpleNumberFormatterER10UErrorCode.exit, label %41

41:                                               ; preds = %.thread, %39
  %42 = phi ptr [ %1, %.thread ], [ %.pr, %39 ]
  %43 = tail call ptr @__dynamic_cast(ptr nonnull %42, ptr nonnull @_ZTIN6icu_7712NumberFormatE, ptr nonnull @_ZTIN6icu_7713DecimalFormatE, i64 0) #23
  %44 = icmp eq ptr %43, null
  br i1 %44, label %_ZN6icu_7716SimpleDateFormat25initSimpleNumberFormatterER10UErrorCode.exit, label %45

45:                                               ; preds = %41
  %46 = load ptr, ptr %43, align 8, !tbaa !44
  %47 = getelementptr inbounds nuw i8, ptr %46, i64 312
  %48 = load ptr, ptr %47, align 8
  %49 = tail call noundef ptr %48(ptr noundef nonnull align 8 dereferenceable(72) %43)
  %50 = icmp eq ptr %49, null
  br i1 %50, label %_ZN6icu_7716SimpleDateFormat25initSimpleNumberFormatterER10UErrorCode.exit, label %51

51:                                               ; preds = %45
  %52 = tail call noundef ptr @_ZN6icu_777UMemorynwEm(i64 noundef 32) #23
  %53 = icmp eq ptr %52, null
  br i1 %53, label %_ZN6icu_7716SimpleDateFormat25initSimpleNumberFormatterER10UErrorCode.exit.sink.split, label %54

54:                                               ; preds = %51
  %55 = getelementptr inbounds nuw i8, ptr %0, i64 240
  invoke void @_ZN6icu_776number21SimpleNumberFormatter38forLocaleAndSymbolsAndGroupingStrategyERKNS_6LocaleERKNS_20DecimalFormatSymbolsE23UNumberGroupingStrategyR10UErrorCode(ptr dead_on_unwind nonnull writable sret(%"class.icu_77::number::SimpleNumberFormatter") align 8 %52, ptr noundef nonnull align 8 dereferenceable(217) %55, ptr noundef nonnull align 8 dereferenceable(2579) %49, i32 noundef 0, ptr noundef nonnull align 4 dereferenceable(4) %3)
          to label %_ZN6icu_7716SimpleDateFormat25initSimpleNumberFormatterER10UErrorCode.exit.sink.split unwind label %56

56:                                               ; preds = %54
  %57 = landingpad { ptr, i32 }
          cleanup
  call void @_ZN6icu_777UMemorydlEPv(ptr noundef nonnull %52) #23
  resume { ptr, i32 } %57

_ZN6icu_7716SimpleDateFormat25initSimpleNumberFormatterER10UErrorCode.exit.sink.split: ; preds = %51, %54
  %.sink = phi ptr [ %52, %54 ], [ null, %51 ]
  store ptr %.sink, ptr %4, align 8, !tbaa !49
  br label %_ZN6icu_7716SimpleDateFormat25initSimpleNumberFormatterER10UErrorCode.exit

_ZN6icu_7716SimpleDateFormat25initSimpleNumberFormatterER10UErrorCode.exit: ; preds = %_ZN6icu_7716SimpleDateFormat25initSimpleNumberFormatterER10UErrorCode.exit.sink.split, %39, %41, %45
  call void @llvm.lifetime.end.p0(i64 4, ptr nonnull %3) #23
  ret void
}